target datalayout = "e-m:e-p270:32:32-p271:32:32-p272:64:64-i64:64-i128:128-f80:128-n8:16:32:64-S128"
target triple = "x86_64-pc-linux-gnu"

%struct.WarpedMotionParams = type { [8 x i32], i16, i16, i16, i16, i8, i8 }
%struct.DecoderCodingBlock = type { %struct.macroblockd, i32, [2 x ptr], [3 x ptr], [3 x i16], [3 x ptr], [3 x i16], [29 x i8], [29 x i8] }
%struct.macroblockd = type { i32, i32, i32, i8, [3 x %struct.macroblockd_plane], %struct.TileInfo, ptr, i8, i8, i8, i8, ptr, ptr, ptr, ptr, ptr, i32, i32, i32, i32, i32, [2 x ptr], ptr, [3 x ptr], [3 x [32 x i8]], ptr, [32 x i8], ptr, ptr, [32 x i8], [3 x %struct.WienerInfo], [3 x %struct.SgrprojInfo], i8, i8, [29 x [8 x %struct.candidate_mv]], [29 x [8 x i16]], i8, i8, [8 x i8], ptr, i32, [8 x i32], [8 x i32], i32, i32, ptr, ptr, i8, [4 x i8], [4 x i8], [7 x i8], [32768 x i8], %struct.cfl_ctx, [2 x i16], ptr, [2 x ptr] }
%struct.macroblockd_plane = type { i8, i32, i32, %struct.buf_2d, [2 x %struct.buf_2d], ptr, ptr, [8 x [2 x i16]], ptr, i8, i8, [8 x [19 x ptr]], [8 x [19 x ptr]] }
%struct.buf_2d = type { ptr, ptr, i32, i32, i32 }
%struct.TileInfo = type { i32, i32, i32, i32, i32, i32 }
%struct.WienerInfo = type { [8 x i16], [8 x i16] }
%struct.SgrprojInfo = type { i32, [2 x i32] }
%struct.candidate_mv = type { %union.int_mv, %union.int_mv }
%union.int_mv = type { i32 }
%struct.cfl_ctx = type { [1024 x i16], [1024 x i16], [2 x i32], i32, [2 x [32 x i16]], i32, i32, i32, i32, i32, i32 }
%struct.AV1Common = type { %struct.CurrentFrame, %struct.aom_internal_error_info, i32, i32, i32, i32, i32, i32, i8, i8, [33 x i32], i32, ptr, ptr, [8 x i32], %struct.scale_factors, [8 x %struct.scale_factors], [8 x ptr], i32, i32, i32, %struct.FeatureFlags, %struct.CommonModeInfoParams, %struct.CommonQuantParams, %struct.segmentation, ptr, [8 x i8], %struct.loop_filter_info_n, %struct.loopfilter, [3 x %struct.RestorationInfo], ptr, ptr, %struct.yv12_buffer_config, %struct.CdefInfo, %struct.aom_film_grain_t, %struct.DeltaQInfo, [8 x %struct.WarpedMotionParams], %struct.SequenceHeader, ptr, ptr, %struct.CommonTileParams, ptr, %struct.CommonContexts, i32, [8 x i32], ptr, i32, [8 x i32], [8 x i8], i32, i32, i32, i32 }
%struct.CurrentFrame = type { i8, i8, i32, i32, i32, %struct.SkipModeInfo, i32, i32 }
%struct.SkipModeInfo = type { i32, i32, i32, i32 }
%struct.aom_internal_error_info = type { i32, i32, [200 x i8], i32, [1 x %struct.__jmp_buf_tag] }
%struct.__jmp_buf_tag = type { [8 x i64], i32, %struct.__sigset_t }
%struct.__sigset_t = type { [16 x i64] }
%struct.scale_factors = type { i32, i32, i32, i32, ptr, ptr }
%struct.FeatureFlags = type { i8, i8, i8, i8, i8, i8, i8, i8, i8, i8, i8, i8, i8, i8, i32, i32, i8 }
%struct.CommonModeInfoParams = type { i32, i32, i32, i32, i32, ptr, i32, i32, i8, ptr, i32, i32, ptr, ptr, ptr, ptr }
%struct.CommonQuantParams = type { i32, i32, i32, i32, i32, i32, [8 x [2 x i16]], [8 x [2 x i16]], [8 x [2 x i16]], [16 x [3 x [19 x ptr]]], [16 x [3 x [19 x ptr]]], [8 x [19 x ptr]], [8 x [19 x ptr]], [8 x [19 x ptr]], i8, i32, i32, i32 }
%struct.segmentation = type { i8, i8, i8, i8, [8 x [8 x i16]], [8 x i32], i32, i8 }
%struct.loop_filter_info_n = type { [64 x %struct.loop_filter_thresh], [3 x [8 x [2 x [8 x [2 x i8]]]]] }
%struct.loop_filter_thresh = type { [16 x i8], [16 x i8], [16 x i8] }
%struct.loopfilter = type { [2 x i32], i32, i32, i32, i8, i8, [8 x i8], [2 x i8], i32 }
%struct.RestorationInfo = type { i32, i32, i32, i32, i32, ptr, %struct.RestorationStripeBoundaries, i32 }
%struct.RestorationStripeBoundaries = type { ptr, ptr, i32, i32 }
%struct.CdefInfo = type { i32, i32, [16 x i32], [16 x i32], i32 }
%struct.aom_film_grain_t = type { i32, i32, [14 x [2 x i32]], i32, [10 x [2 x i32]], i32, [10 x [2 x i32]], i32, i32, i32, [24 x i32], [25 x i32], [25 x i32], i32, i32, i32, i32, i32, i32, i32, i32, i32, i32, i32, i32, i16 }
%struct.DeltaQInfo = type { i32, i32, i32, i32, i32 }
%struct.SequenceHeader = type { i32, i32, i32, i32, i8, i32, i32, i8, i32, i32, %struct.OrderHintInfo, i8, i8, i8, i8, i8, i8, i8, i8, i8, i8, i8, i8, i8, i8, i32, i8, i8, i32, i32, i32, i32, i32, i32, i32, i8, i8, i32, [32 x i32], i32, %struct.aom_timing, i8, %struct.aom_dec_model_info, i8, [32 x i8], [32 x i8], [33 x %struct.aom_dec_model_op_parameters] }
%struct.OrderHintInfo = type { i32, i32, i32, i32 }
%struct.aom_timing = type { i32, i32, i32, i32 }
%struct.aom_dec_model_info = type { i32, i32, i32, i32 }
%struct.aom_dec_model_op_parameters = type { i32, i64, i64, i32, i32, i32, i32, i32 }
%struct.CommonTileParams = type { i32, i32, i32, i32, i32, i32, i32, i32, i32, i32, i32, i32, i32, i32, i32, [65 x i32], [65 x i32], i32, i32 }
%struct.CommonContexts = type { ptr, [3 x ptr], ptr, i32, i32, i32 }
%struct.eob_info = type { i16, i16 }
%struct.yv12_buffer_config = type { %union.anon, %union.anon.0, %union.anon.2, %union.anon.4, %union.anon.6, %union.anon.8, i32, [3 x ptr], ptr, i32, ptr, i64, i32, i64, i32, i32, i32, i32, i32, i32, i8, i32, i32, i32, i32, i32, i32, ptr }
%union.anon = type { %struct.anon }
%struct.anon = type { i32, i32 }
%union.anon.0 = type { %struct.anon.1 }
%struct.anon.1 = type { i32, i32 }
%union.anon.2 = type { %struct.anon.3 }
%struct.anon.3 = type { i32, i32 }
%union.anon.4 = type { %struct.anon.5 }
%struct.anon.5 = type { i32, i32 }
%union.anon.6 = type { %struct.anon.7 }
%struct.anon.7 = type { i32, i32 }
%union.anon.8 = type { %struct.anon.9 }
%struct.anon.9 = type { ptr, ptr, ptr }

; Function Attrs: nounwind uwtable
define internal void @inverse_transform_block(ptr noundef %0, i32 noundef %1, i8 noundef zeroext %2, i8 noundef zeroext %3, ptr noundef %4, i32 noundef %5, i32 noundef %6) #0 {
  %8 = alloca ptr, align 8
  %9 = alloca i32, align 4
  %10 = alloca i8, align 1
  %11 = alloca i8, align 1
  %12 = alloca ptr, align 8
  %13 = alloca i32, align 4
  %14 = alloca i32, align 4
  %15 = alloca ptr, align 8
  %16 = alloca ptr, align 8
  %17 = alloca i16, align 2
  %18 = alloca i16, align 2
  store ptr %0, ptr %8, align 8
  store i32 %1, ptr %9, align 4
  store i8 %2, ptr %10, align 1
  store i8 %3, ptr %11, align 1
  store ptr %4, ptr %12, align 8
  store i32 %5, ptr %13, align 4
  store i32 %6, ptr %14, align 4
  %19 = load ptr, ptr %8, align 8
  %20 = getelementptr inbounds nuw %struct.DecoderCodingBlock, ptr %19, i32 0, i32 3
  %21 = load i32, ptr %9, align 4
  %22 = sext i32 %21 to i64
  %23 = getelementptr inbounds [3 x ptr], ptr %20, i64 0, i64 %22
  %24 = load ptr, ptr %23, align 8
  %25 = load ptr, ptr %8, align 8
  %26 = getelementptr inbounds nuw %struct.DecoderCodingBlock, ptr %25, i32 0, i32 4
  %27 = load i32, ptr %9, align 4
  %28 = sext i32 %27 to i64
  %29 = getelementptr inbounds [3 x i16], ptr %26, i64 0, i64 %28
  %30 = load i16, ptr %29, align 2
  %31 = zext i16 %30 to i32
  %32 = sext i32 %31 to i64
  %33 = getelementptr inbounds i32, ptr %24, i64 %32
  store ptr %33, ptr %15, align 8
  %34 = load ptr, ptr %8, align 8
  %35 = getelementptr inbounds nuw %struct.DecoderCodingBlock, ptr %34, i32 0, i32 5
  %36 = load i32, ptr %9, align 4
  %37 = sext i32 %36 to i64
  %38 = getelementptr inbounds [3 x ptr], ptr %35, i64 0, i64 %37
  %39 = load ptr, ptr %38, align 8
  %40 = load ptr, ptr %8, align 8
  %41 = getelementptr inbounds nuw %struct.DecoderCodingBlock, ptr %40, i32 0, i32 6
  %42 = load i32, ptr %9, align 4
  %43 = sext i32 %42 to i64
  %44 = getelementptr inbounds [3 x i16], ptr %41, i64 0, i64 %43
  %45 = load i16, ptr %44, align 2
  %46 = zext i16 %45 to i32
  %47 = sext i32 %46 to i64
  %48 = getelementptr inbounds %struct.eob_info, ptr %39, i64 %47
  store ptr %48, ptr %16, align 8
  %49 = load ptr, ptr %16, align 8
  %50 = getelementptr inbounds nuw %struct.eob_info, ptr %49, i32 0, i32 1
  %51 = load i16, ptr %50, align 2
  store i16 %51, ptr %17, align 2
  %52 = load ptr, ptr %16, align 8
  %53 = getelementptr inbounds nuw %struct.eob_info, ptr %52, i32 0, i32 0
  %54 = load i16, ptr %53, align 2
  store i16 %54, ptr %18, align 2
  %55 = load ptr, ptr %8, align 8
  %56 = getelementptr inbounds nuw %struct.DecoderCodingBlock, ptr %55, i32 0, i32 0
  %57 = load ptr, ptr %15, align 8
  %58 = load i32, ptr %9, align 4
  %59 = load i8, ptr %10, align 1
  %60 = load i8, ptr %11, align 1
  %61 = load ptr, ptr %12, align 8
  %62 = load i32, ptr %13, align 4
  %63 = load i16, ptr %18, align 2
  %64 = zext i16 %63 to i32
  %65 = load i32, ptr %14, align 4
  call void @av1_inverse_transform_block(ptr noundef %56, ptr noundef %57, i32 noundef %58, i8 noundef zeroext %59, i8 noundef zeroext %60, ptr noundef %61, i32 noundef %62, i32 noundef %64, i32 noundef %65)
  %66 = load ptr, ptr %15, align 8
  %67 = load i16, ptr %17, align 2
  %68 = zext i16 %67 to i32
  %69 = add nsw i32 %68, 1
  %70 = sext i32 %69 to i64
  %71 = mul i64 %70, 4
  call void @llvm.memset.p0.i64(ptr align 4 %66, i8 0, i64 %71, i1 false)
  ret void
}

; Function Attrs: nounwind uwtable
define internal zeroext i8 @get_plane_type(i32 noundef %0) #0 {
  %2 = alloca i32, align 4
  store i32 %0, ptr %2, align 4
  %3 = load i32, ptr %2, align 4
  %4 = icmp eq i32 %3, 0
  %5 = select i1 %4, i32 0, i32 1
  %6 = trunc i32 %5 to i8
  ret i8 %6
}

; Function Attrs: nounwind uwtable
define internal void @inverse_transform_inter_block(ptr noundef %0, ptr noundef %1, ptr noundef %2, i32 noundef %3, i32 noundef %4, i32 noundef %5, i8 noundef zeroext %6) #0 {
  %8 = alloca ptr, align 8
  %9 = alloca ptr, align 8
  %10 = alloca ptr, align 8
  %11 = alloca i32, align 4
  %12 = alloca i32, align 4
  %13 = alloca i32, align 4
  %14 = alloca i8, align 1
  %15 = alloca ptr, align 8
  %16 = alloca i8, align 1
  %17 = alloca ptr, align 8
  %18 = alloca i8, align 1
  %19 = alloca i8, align 1
  %20 = alloca ptr, align 8
  store ptr %0, ptr %8, align 8
  store ptr %1, ptr %9, align 8
  store ptr %2, ptr %10, align 8
  store i32 %3, ptr %11, align 4
  store i32 %4, ptr %12, align 4
  store i32 %5, ptr %13, align 4
  store i8 %6, ptr %14, align 1
  %21 = load ptr, ptr %9, align 8
  %22 = getelementptr inbounds nuw %struct.DecoderCodingBlock, ptr %21, i32 0, i32 0
  store ptr %22, ptr %15, align 8
  %23 = load i32, ptr %11, align 4
  %24 = call zeroext i8 @get_plane_type(i32 noundef %23)
  store i8 %24, ptr %16, align 1
  %25 = load ptr, ptr %15, align 8
  %26 = getelementptr inbounds nuw %struct.macroblockd, ptr %25, i32 0, i32 4
  %27 = load i32, ptr %11, align 4
  %28 = sext i32 %27 to i64
  %29 = getelementptr inbounds [3 x %struct.macroblockd_plane], ptr %26, i64 0, i64 %28
  store ptr %29, ptr %17, align 8
  %30 = load ptr, ptr %8, align 8
  %31 = getelementptr inbounds nuw %struct.AV1Common, ptr %30, i32 0, i32 21
  %32 = getelementptr inbounds nuw %struct.FeatureFlags, ptr %31, i32 0, i32 9
  %33 = load i8, ptr %32, align 1
  %34 = trunc i8 %33 to i1
  %35 = zext i1 %34 to i8
  store i8 %35, ptr %18, align 1
  %36 = load ptr, ptr %15, align 8
  %37 = load i8, ptr %16, align 1
  %38 = load i32, ptr %12, align 4
  %39 = load i32, ptr %13, align 4
  %40 = load i8, ptr %14, align 1
  %41 = load i8, ptr %18, align 1
  %42 = trunc i8 %41 to i1
  %43 = zext i1 %42 to i32
  %44 = call zeroext i8 @av1_get_tx_type(ptr noundef %36, i8 noundef zeroext %37, i32 noundef %38, i32 noundef %39, i8 noundef zeroext %40, i32 noundef %43)
  store i8 %44, ptr %19, align 1
  %45 = load ptr, ptr %17, align 8
  %46 = getelementptr inbounds nuw %struct.macroblockd_plane, ptr %45, i32 0, i32 3
  %47 = getelementptr inbounds nuw %struct.buf_2d, ptr %46, i32 0, i32 0
  %48 = load ptr, ptr %47, align 8
  %49 = load i32, ptr %12, align 4
  %50 = load ptr, ptr %17, align 8
  %51 = getelementptr inbounds nuw %struct.macroblockd_plane, ptr %50, i32 0, i32 3
  %52 = getelementptr inbounds nuw %struct.buf_2d, ptr %51, i32 0, i32 4
  %53 = load i32, ptr %52, align 8
  %54 = mul nsw i32 %49, %53
  %55 = load i32, ptr %13, align 4
  %56 = add nsw i32 %54, %55
  %57 = shl i32 %56, 2
  %58 = sext i32 %57 to i64
  %59 = getelementptr inbounds i8, ptr %48, i64 %58
  store ptr %59, ptr %20, align 8
  %60 = load ptr, ptr %9, align 8
  %61 = load i32, ptr %11, align 4
  %62 = load i8, ptr %19, align 1
  %63 = load i8, ptr %14, align 1
  %64 = load ptr, ptr %20, align 8
  %65 = load ptr, ptr %17, align 8
  %66 = getelementptr inbounds nuw %struct.macroblockd_plane, ptr %65, i32 0, i32 3
  %67 = getelementptr inbounds nuw %struct.buf_2d, ptr %66, i32 0, i32 4
  %68 = load i32, ptr %67, align 8
  %69 = load i8, ptr %18, align 1
  %70 = trunc i8 %69 to i1
  %71 = zext i1 %70 to i32
  call void @inverse_transform_block(ptr noundef %60, i32 noundef %61, i8 noundef zeroext %62, i8 noundef zeroext %63, ptr noundef %64, i32 noundef %68, i32 noundef %71)
  ret void
}