; Function Attrs: nounwind uwtable
define internal void @inverse_transform_inter_block(ptr noundef readonly captures(none) %0, ptr noundef %1, ptr readnone captures(none) %2, i32 noundef %3, i32 noundef %4, i32 noundef %5, i8 noundef zeroext %6) #0 {
  %8 = icmp ne i32 %3, 0
  %9 = zext i1 %8 to i8
  %10 = sext i32 %3 to i64
  %11 = getelementptr inbounds nuw i8, ptr %0, i64 1045
  %12 = load i8, ptr %11, align 1
  %13 = and i8 %12, 1
  %14 = zext nneg i8 %13 to i32
  %15 = tail call fastcc zeroext i8 @av1_get_tx_type(ptr noundef %1, i8 noundef zeroext %9, i32 noundef %4, i32 noundef %5, i8 noundef zeroext %6, i32 noundef %14)
  %.idx = mul nsw i64 %10, 2608
  %16 = getelementptr i8, ptr %1, i64 32
  %17 = getelementptr i8, ptr %16, i64 %.idx
  %18 = load ptr, ptr %17, align 8
  %19 = getelementptr inbounds nuw i8, ptr %17, i64 24
  %20 = load i32, ptr %19, align 8
  %21 = mul nsw i32 %20, %4
  %22 = add nsw i32 %21, %5
  %23 = shl i32 %22, 2
  %24 = sext i32 %23 to i64
  %25 = getelementptr inbounds i8, ptr %18, i64 %24
  %26 = getelementptr inbounds nuw i8, ptr %1, i64 47848
  %27 = getelementptr inbounds [3 x ptr], ptr %26, i64 0, i64 %10
  %28 = load ptr, ptr %27, align 8
  %29 = getelementptr inbounds nuw i8, ptr %1, i64 47872
  %30 = getelementptr inbounds [3 x i16], ptr %29, i64 0, i64 %10
  %31 = load i16, ptr %30, align 2
  %32 = zext i16 %31 to i64
  %33 = getelementptr inbounds nuw i32, ptr %28, i64 %32
  %34 = getelementptr inbounds nuw i8, ptr %1, i64 47880
  %35 = getelementptr inbounds [3 x ptr], ptr %34, i64 0, i64 %10
  %36 = load ptr, ptr %35, align 8
  %37 = getelementptr inbounds nuw i8, ptr %1, i64 47904
  %38 = getelementptr inbounds [3 x i16], ptr %37, i64 0, i64 %10
  %39 = load i16, ptr %38, align 2
  %40 = zext i16 %39 to i64
  %41 = getelementptr inbounds nuw %struct.eob_info, ptr %36, i64 %40
  %42 = getelementptr inbounds nuw i8, ptr %41, i64 2
  %43 = load i16, ptr %42, align 2
  %44 = load i16, ptr %41, align 2
  %45 = zext i16 %44 to i32
  tail call void @av1_inverse_transform_block(ptr noundef %1, ptr noundef %33, i32 noundef %3, i8 noundef zeroext %15, i8 noundef zeroext %6, ptr noundef %25, i32 noundef %20, i32 noundef %45, i32 noundef range(i32 0, 2) %14) #16
  %46 = zext i16 %43 to i64
  %47 = shl nuw nsw i64 %46, 2
  %48 = add nuw nsw i64 %47, 4
  tail call void @llvm.memset.p0.i64(ptr noundef nonnull align 4 dereferenceable(1) %33, i8 0, i64 %48, i1 false)
  ret void
}